; Function Attrs: nounwind uwtable
define zeroext range(i8 0, 2) i8 @l___private_Lean_Elab_Declaration_0__Lean_Elab_Command_isMutualDef(ptr noundef %0) local_unnamed_addr #0 {
  %2 = tail call ptr @l_Lean_Syntax_getArg(ptr noundef %0, ptr noundef nonnull inttoptr (i64 3 to ptr)) #6
  %3 = tail call ptr @l_Lean_Syntax_getArgs(ptr noundef %2) #6
  %4 = ptrtoint ptr %2 to i64
  %5 = and i64 %4, 1
  %.not = icmp eq i64 %5, 0
  br i1 %.not, label %6, label %lean_nat_lt.exit

6:                                                ; preds = %1
  %7 = load i32, ptr %2, align 4, !tbaa !4
  %8 = icmp sgt i32 %7, 1
  br i1 %8, label %9, label %11, !prof !11

9:                                                ; preds = %6
  %10 = add nsw i32 %7, -1
  store i32 %10, ptr %2, align 4, !tbaa !4
  br label %lean_nat_lt.exit

11:                                               ; preds = %6
  %.not.i = icmp eq i32 %7, 0
  br i1 %.not.i, label %lean_nat_lt.exit, label %12

12:                                               ; preds = %11
  tail call void @lean_dec_ref_cold(ptr noundef nonnull %2) #6
  br label %lean_nat_lt.exit

lean_nat_lt.exit:                                 ; preds = %1, %9, %11, %12
  %13 = getelementptr i8, ptr %3, i64 8
  %.val = load i64, ptr %13, align 8, !tbaa !12
  %.mask = and i64 %.val, 9223372036854775807
  %.not33 = icmp eq i64 %.mask, 0
  br i1 %.not33, label %lean_dec.exit22, label %lean_dec.exit20

lean_dec.exit22:                                  ; preds = %lean_nat_lt.exit
  %14 = ptrtoint ptr %3 to i64
  %15 = and i64 %14, 1
  %.not35 = icmp eq i64 %15, 0
  br i1 %.not35, label %16, label %lean_dec.exit21

16:                                               ; preds = %lean_dec.exit22
  %17 = load i32, ptr %3, align 4, !tbaa !4
  %18 = icmp sgt i32 %17, 1
  br i1 %18, label %19, label %21, !prof !11

19:                                               ; preds = %16
  %20 = add nsw i32 %17, -1
  store i32 %20, ptr %3, align 4, !tbaa !4
  br label %lean_dec.exit21

21:                                               ; preds = %16
  %.not.i26 = icmp eq i32 %17, 0
  br i1 %.not.i26, label %lean_dec.exit21, label %22

22:                                               ; preds = %21
  tail call void @lean_dec_ref_cold(ptr noundef nonnull %3) #6
  br label %lean_dec.exit21

lean_dec.exit20:                                  ; preds = %lean_nat_lt.exit
  %23 = tail call zeroext i8 @l_Array_anyMUnsafe_any___at___private_Lean_Elab_Declaration_0__Lean_Elab_Command_isMutualDef___spec__1(ptr noundef nonnull %3, i64 noundef 0, i64 noundef %.mask)
  %24 = ptrtoint ptr %3 to i64
  %25 = and i64 %24, 1
  %.not34 = icmp eq i64 %25, 0
  br i1 %.not34, label %26, label %lean_dec.exit

26:                                               ; preds = %lean_dec.exit20
  %27 = load i32, ptr %3, align 4, !tbaa !4
  %28 = icmp sgt i32 %27, 1
  br i1 %28, label %29, label %31, !prof !11

29:                                               ; preds = %26
  %30 = add nsw i32 %27, -1
  store i32 %30, ptr %3, align 4, !tbaa !4
  br label %lean_dec.exit

31:                                               ; preds = %26
  %.not.i30 = icmp eq i32 %27, 0
  br i1 %.not.i30, label %lean_dec.exit, label %32

32:                                               ; preds = %31
  tail call void @lean_dec_ref_cold(ptr noundef nonnull %3) #6
  br label %lean_dec.exit

lean_dec.exit:                                    ; preds = %32, %31, %29, %lean_dec.exit20
  %. = xor i8 %23, 1
  br label %lean_dec.exit21

lean_dec.exit21:                                  ; preds = %lean_dec.exit22, %19, %21, %22, %lean_dec.exit
  %.0 = phi i8 [ %., %lean_dec.exit ], [ 1, %22 ], [ 1, %21 ], [ 1, %19 ], [ 1, %lean_dec.exit22 ]
  ret i8 %.0
}